target datalayout = "e-m:e-p270:32:32-p271:32:32-p272:64:64-i64:64-i128:128-f80:128-n8:16:32:64-S128"
target triple = "x86_64-pc-linux-gnu"

%struct.submodule_entry_list = type { ptr, i32, i32 }

; Function Attrs: nounwind uwtable
define dso_local void @submodules_of_tree(ptr noundef %0, ptr noundef %1, ptr noundef %2) #0 {
  %4 = alloca ptr, align 8
  %5 = alloca ptr, align 8
  %6 = alloca ptr, align 8
  store ptr %0, ptr %4, align 8, !tbaa !31
  store ptr %1, ptr %5, align 8, !tbaa !82
  store ptr %2, ptr %6, align 8, !tbaa !95
  %7 = call ptr @xcalloc(i64 noundef 0, i64 noundef 24)
  %8 = load ptr, ptr %6, align 8, !tbaa !95
  %9 = getelementptr inbounds nuw %struct.submodule_entry_list, ptr %8, i32 0, i32 0
  store ptr %7, ptr %9, align 8, !tbaa !97
  %10 = load ptr, ptr %6, align 8, !tbaa !95
  %11 = getelementptr inbounds nuw %struct.submodule_entry_list, ptr %10, i32 0, i32 1
  store i32 0, ptr %11, align 8, !tbaa !100
  %12 = load ptr, ptr %6, align 8, !tbaa !95
  %13 = getelementptr inbounds nuw %struct.submodule_entry_list, ptr %12, i32 0, i32 2
  store i32 0, ptr %13, align 4, !tbaa !101
  %14 = load ptr, ptr %4, align 8, !tbaa !31
  %15 = load ptr, ptr %5, align 8, !tbaa !82
  %16 = load ptr, ptr %5, align 8, !tbaa !82
  %17 = load ptr, ptr %6, align 8, !tbaa !95
  call void @traverse_tree_submodules(ptr noundef %14, ptr noundef %15, ptr noundef null, ptr noundef %16, ptr noundef %17)
  ret void
}