; Function Attrs: nounwind uwtable
define dso_local void @submodules_of_tree(ptr noundef %0, ptr noundef %1, ptr noundef captures(none) initializes((0, 16)) %2) local_unnamed_addr #0 {
  %4 = tail call ptr @xcalloc(i64 noundef 0, i64 noundef 24) #15
  store ptr %4, ptr %2, align 8, !tbaa !90
  %5 = getelementptr inbounds nuw i8, ptr %2, i64 8
  store i32 0, ptr %5, align 8, !tbaa !93
  %6 = getelementptr inbounds nuw i8, ptr %2, i64 12
  store i32 0, ptr %6, align 4, !tbaa !94
  tail call fastcc void @traverse_tree_submodules(ptr noundef %0, ptr noundef %1, ptr noundef null, ptr noundef %1, ptr noundef nonnull %2)
  ret void
}